target datalayout = "e-m:e-p270:32:32-p271:32:32-p272:64:64-i64:64-i128:128-f80:128-n8:16:32:64-S128"
target triple = "x86_64-pc-linux-gnu"

%struct.dirent = type { i64, i64, i16, i8, [256 x i8] }

@SDL_classic_joysticks = internal global i8 0, align 1
@.str.13 = private unnamed_addr constant [3 x i8] c"js\00", align 1
@.str.15 = private unnamed_addr constant [6 x i8] c"event\00", align 1

; Function Attrs: nounwind uwtable
define internal zeroext i1 @StrIsInteger(ptr noundef %0) #0 {
  %2 = alloca i1, align 1
  %3 = alloca ptr, align 8
  %4 = alloca ptr, align 8
  %5 = alloca i32, align 4
  store ptr %0, ptr %3, align 8
  call void @llvm.lifetime.start.p0(i64 8, ptr %4) #11
  %6 = load ptr, ptr %3, align 8
  %7 = load i8, ptr %6, align 1
  %8 = sext i8 %7 to i32
  %9 = icmp eq i32 %8, 0
  br i1 %9, label %10, label %11

10:                                               ; preds = %1
  store i1 false, ptr %2, align 1
  store i32 1, ptr %5, align 4
  br label %34

11:                                               ; preds = %1
  %12 = load ptr, ptr %3, align 8
  store ptr %12, ptr %4, align 8
  br label %13

13:                                               ; preds = %30, %11
  %14 = load ptr, ptr %4, align 8
  %15 = load i8, ptr %14, align 1
  %16 = sext i8 %15 to i32
  %17 = icmp ne i32 %16, 0
  br i1 %17, label %18, label %33

18:                                               ; preds = %13
  %19 = load ptr, ptr %4, align 8
  %20 = load i8, ptr %19, align 1
  %21 = sext i8 %20 to i32
  %22 = icmp slt i32 %21, 48
  br i1 %22, label %28, label %23

23:                                               ; preds = %18
  %24 = load ptr, ptr %4, align 8
  %25 = load i8, ptr %24, align 1
  %26 = sext i8 %25 to i32
  %27 = icmp sgt i32 %26, 57
  br i1 %27, label %28, label %29

28:                                               ; preds = %23, %18
  store i1 false, ptr %2, align 1
  store i32 1, ptr %5, align 4
  br label %34

29:                                               ; preds = %23
  br label %30

30:                                               ; preds = %29
  %31 = load ptr, ptr %4, align 8
  %32 = getelementptr inbounds nuw i8, ptr %31, i32 1
  store ptr %32, ptr %4, align 8
  br label %13, !llvm.loop !14

33:                                               ; preds = %13
  store i1 true, ptr %2, align 1
  store i32 1, ptr %5, align 4
  br label %34

34:                                               ; preds = %33, %28, %10
  call void @llvm.lifetime.end.p0(i64 8, ptr %4) #11
  %35 = load i1, ptr %2, align 1
  ret i1 %35
}

; Function Attrs: nounwind uwtable
define internal zeroext i1 @IsJoystickEventNode(ptr noundef %0) #0 {
  %2 = alloca ptr, align 8
  %3 = alloca ptr, align 8
  store ptr %0, ptr %2, align 8
  call void @llvm.lifetime.start.p0(i64 8, ptr %3) #11
  %4 = load ptr, ptr %2, align 8
  %5 = call ptr @SDL_strrchr_REAL(ptr noundef %4, i32 noundef 47)
  store ptr %5, ptr %3, align 8
  %6 = load ptr, ptr %3, align 8
  %7 = icmp ne ptr %6, null
  br i1 %7, label %8, label %11

8:                                                ; preds = %1
  %9 = load ptr, ptr %3, align 8
  %10 = getelementptr inbounds i8, ptr %9, i64 1
  store ptr %10, ptr %2, align 8
  br label %11

11:                                               ; preds = %8, %1
  %12 = load ptr, ptr %2, align 8
  %13 = call zeroext i1 @SDL_startswith(ptr noundef %12, ptr noundef @.str.15)
  br i1 %13, label %14, label %18

14:                                               ; preds = %11
  %15 = load ptr, ptr %2, align 8
  %16 = getelementptr inbounds i8, ptr %15, i64 5
  %17 = call zeroext i1 @StrIsInteger(ptr noundef %16)
  br label %18

18:                                               ; preds = %14, %11
  %19 = phi i1 [ false, %11 ], [ %17, %14 ]
  call void @llvm.lifetime.end.p0(i64 8, ptr %3) #11
  ret i1 %19
}

; Function Attrs: nounwind uwtable
define internal zeroext i1 @IsJoystickJSNode(ptr noundef %0) #0 {
  %2 = alloca ptr, align 8
  %3 = alloca ptr, align 8
  store ptr %0, ptr %2, align 8
  call void @llvm.lifetime.start.p0(i64 8, ptr %3) #11
  %4 = load ptr, ptr %2, align 8
  %5 = call ptr @SDL_strrchr_REAL(ptr noundef %4, i32 noundef 47)
  store ptr %5, ptr %3, align 8
  %6 = load ptr, ptr %3, align 8
  %7 = icmp ne ptr %6, null
  br i1 %7, label %8, label %11

8:                                                ; preds = %1
  %9 = load ptr, ptr %3, align 8
  %10 = getelementptr inbounds i8, ptr %9, i64 1
  store ptr %10, ptr %2, align 8
  br label %11

11:                                               ; preds = %8, %1
  %12 = load ptr, ptr %2, align 8
  %13 = call zeroext i1 @SDL_startswith(ptr noundef %12, ptr noundef @.str.13)
  br i1 %13, label %14, label %18

14:                                               ; preds = %11
  %15 = load ptr, ptr %2, align 8
  %16 = getelementptr inbounds i8, ptr %15, i64 2
  %17 = call zeroext i1 @StrIsInteger(ptr noundef %16)
  br label %18

18:                                               ; preds = %14, %11
  %19 = phi i1 [ false, %11 ], [ %17, %14 ]
  call void @llvm.lifetime.end.p0(i64 8, ptr %3) #11
  ret i1 %19
}

; Function Attrs: nounwind uwtable
define internal zeroext i1 @IsJoystickDeviceNode(ptr noundef %0) #0 {
  %2 = alloca i1, align 1
  %3 = alloca ptr, align 8
  store ptr %0, ptr %3, align 8
  %4 = load i8, ptr @SDL_classic_joysticks, align 1, !range !5, !noundef !6
  %5 = trunc i8 %4 to i1
  br i1 %5, label %6, label %9

6:                                                ; preds = %1
  %7 = load ptr, ptr %3, align 8
  %8 = call zeroext i1 @IsJoystickJSNode(ptr noundef %7)
  store i1 %8, ptr %2, align 1
  br label %12

9:                                                ; preds = %1
  %10 = load ptr, ptr %3, align 8
  %11 = call zeroext i1 @IsJoystickEventNode(ptr noundef %10)
  store i1 %11, ptr %2, align 1
  br label %12

12:                                               ; preds = %9, %6
  %13 = load i1, ptr %2, align 1
  ret i1 %13
}

; Function Attrs: nounwind uwtable
define internal i32 @filter_entries(ptr noundef %0) #0 {
  %2 = alloca ptr, align 8
  store ptr %0, ptr %2, align 8
  %3 = load ptr, ptr %2, align 8
  %4 = getelementptr inbounds nuw %struct.dirent, ptr %3, i32 0, i32 4
  %5 = getelementptr inbounds [256 x i8], ptr %4, i64 0, i64 0
  %6 = call zeroext i1 @IsJoystickDeviceNode(ptr noundef %5)
  %7 = zext i1 %6 to i32
  ret i32 %7
}