; Function Attrs: nounwind uwtable
define internal range(i32 0, 2) i32 @filter_entries(ptr noundef %0) #0 {
  %2 = getelementptr inbounds nuw i8, ptr %0, i64 19
  %3 = load i8, ptr @SDL_classic_joysticks, align 1, !range !5, !noundef !6
  %4 = trunc nuw i8 %3 to i1
  %5 = tail call ptr @SDL_strrchr_REAL(ptr noundef nonnull %2, i32 noundef 47) #18
  %.not.i.i = icmp eq ptr %5, null
  %6 = getelementptr inbounds nuw i8, ptr %5, i64 1
  %spec.select.i.i = select i1 %.not.i.i, ptr %2, ptr %6
  br i1 %4, label %7, label %17

7:                                                ; preds = %1
  %8 = tail call zeroext i1 @SDL_startswith(ptr noundef nonnull %spec.select.i.i, ptr noundef nonnull @.str.13) #18
  br i1 %8, label %9, label %IsJoystickDeviceNode.exit

9:                                                ; preds = %7
  %10 = getelementptr inbounds nuw i8, ptr %spec.select.i.i, i64 2
  %11 = load i8, ptr %10, align 1
  %12 = icmp eq i8 %11, 0
  br i1 %12, label %IsJoystickDeviceNode.exit, label %.preheader.i.i.i

.preheader.i.i.i:                                 ; preds = %9, %15
  %.09.i.i.i = phi ptr [ %16, %15 ], [ %10, %9 ]
  %13 = phi i8 [ %.pr.i.i.i, %15 ], [ %11, %9 ]
  %14 = add i8 %13, -48
  %or.cond.i.i.i = icmp ult i8 %14, 10
  br i1 %or.cond.i.i.i, label %15, label %IsJoystickDeviceNode.exit

15:                                               ; preds = %.preheader.i.i.i
  %16 = getelementptr inbounds nuw i8, ptr %.09.i.i.i, i64 1
  %.pr.i.i.i = load i8, ptr %16, align 1
  %.not.i.i.i = icmp eq i8 %.pr.i.i.i, 0
  br i1 %.not.i.i.i, label %IsJoystickDeviceNode.exit, label %.preheader.i.i.i, !llvm.loop !7

17:                                               ; preds = %1
  %18 = tail call zeroext i1 @SDL_startswith(ptr noundef nonnull %spec.select.i.i, ptr noundef nonnull @.str.15) #18
  br i1 %18, label %19, label %IsJoystickDeviceNode.exit

19:                                               ; preds = %17
  %20 = getelementptr inbounds nuw i8, ptr %spec.select.i.i, i64 5
  %21 = load i8, ptr %20, align 1
  %22 = icmp eq i8 %21, 0
  br i1 %22, label %IsJoystickDeviceNode.exit, label %.preheader.i.i5.i

.preheader.i.i5.i:                                ; preds = %19, %25
  %.09.i.i6.i = phi ptr [ %26, %25 ], [ %20, %19 ]
  %23 = phi i8 [ %.pr.i.i8.i, %25 ], [ %21, %19 ]
  %24 = add i8 %23, -48
  %or.cond.i.i7.i = icmp ult i8 %24, 10
  br i1 %or.cond.i.i7.i, label %25, label %IsJoystickDeviceNode.exit

25:                                               ; preds = %.preheader.i.i5.i
  %26 = getelementptr inbounds nuw i8, ptr %.09.i.i6.i, i64 1
  %.pr.i.i8.i = load i8, ptr %26, align 1
  %.not.i.i9.i = icmp eq i8 %.pr.i.i8.i, 0
  br i1 %.not.i.i9.i, label %IsJoystickDeviceNode.exit, label %.preheader.i.i5.i, !llvm.loop !7

IsJoystickDeviceNode.exit:                        ; preds = %.preheader.i.i5.i, %25, %.preheader.i.i.i, %15, %7, %9, %17, %19
  %.0.i = phi i32 [ 0, %7 ], [ 0, %9 ], [ 0, %17 ], [ 0, %19 ], [ 0, %.preheader.i.i.i ], [ 1, %15 ], [ 0, %.preheader.i.i5.i ], [ 1, %25 ]
  ret i32 %.0.i
}